target datalayout = "e-m:e-p270:32:32-p271:32:32-p272:64:64-i64:64-i128:128-f80:128-n8:16:32:64-S128"
target triple = "x86_64-pc-linux-gnu"

%struct.Pdr_Set_t_ = type { i64, i32, i32, i32, [0 x i32] }

@.str.20 = private unnamed_addr constant [10 x i8] c"Clause: {\00", align 1
@.str.21 = private unnamed_addr constant [6 x i8] c" %s%d\00", align 1
@.str.22 = private unnamed_addr constant [2 x i8] c"!\00", align 1
@.str.23 = private unnamed_addr constant [1 x i8] zeroinitializer, align 1
@.str.24 = private unnamed_addr constant [4 x i8] c" }\0A\00", align 1

; Function Attrs: nounwind uwtable
define internal i32 @Abc_Lit2Var(i32 noundef %0) #0 {
  %2 = alloca i32, align 4
  store i32 %0, ptr %2, align 4
  %3 = load i32, ptr %2, align 4
  %4 = ashr i32 %3, 1
  ret i32 %4
}

; Function Attrs: nounwind uwtable
define internal i32 @Abc_LitIsCompl(i32 noundef %0) #0 {
  %2 = alloca i32, align 4
  store i32 %0, ptr %2, align 4
  %3 = load i32, ptr %2, align 4
  %4 = and i32 %3, 1
  ret i32 %4
}

; Function Attrs: nounwind uwtable
define void @Pdr_SetPrintOne(ptr noundef %0) #0 {
  %2 = alloca ptr, align 8
  %3 = alloca i32, align 4
  store ptr %0, ptr %2, align 8
  call void (i32, ptr, ...) @Abc_Print(i32 noundef 1, ptr noundef @.str.20)
  store i32 0, ptr %3, align 4
  br label %4

4:                                                ; preds = %27, %1
  %5 = load i32, ptr %3, align 4
  %6 = load ptr, ptr %2, align 8
  %7 = getelementptr inbounds %struct.Pdr_Set_t_, ptr %6, i32 0, i32 3
  %8 = load i32, ptr %7, align 8
  %9 = icmp slt i32 %5, %8
  br i1 %9, label %10, label %30

10:                                               ; preds = %4
  %11 = load ptr, ptr %2, align 8
  %12 = getelementptr inbounds %struct.Pdr_Set_t_, ptr %11, i32 0, i32 4
  %13 = load i32, ptr %3, align 4
  %14 = sext i32 %13 to i64
  %15 = getelementptr inbounds [0 x i32], ptr %12, i64 0, i64 %14
  %16 = load i32, ptr %15, align 4
  %17 = call i32 @Abc_LitIsCompl(i32 noundef %16)
  %18 = icmp ne i32 %17, 0
  %19 = select i1 %18, ptr @.str.22, ptr @.str.23
  %20 = load ptr, ptr %2, align 8
  %21 = getelementptr inbounds %struct.Pdr_Set_t_, ptr %20, i32 0, i32 4
  %22 = load i32, ptr %3, align 4
  %23 = sext i32 %22 to i64
  %24 = getelementptr inbounds [0 x i32], ptr %21, i64 0, i64 %23
  %25 = load i32, ptr %24, align 4
  %26 = call i32 @Abc_Lit2Var(i32 noundef %25)
  call void (i32, ptr, ...) @Abc_Print(i32 noundef 1, ptr noundef @.str.21, ptr noundef %19, i32 noundef %26)
  br label %27

27:                                               ; preds = %10
  %28 = load i32, ptr %3, align 4
  %29 = add nsw i32 %28, 1
  store i32 %29, ptr %3, align 4
  br label %4, !llvm.loop !18

30:                                               ; preds = %4
  call void (i32, ptr, ...) @Abc_Print(i32 noundef 1, ptr noundef @.str.24)
  ret void
}