; Function Attrs: nounwind uwtable
define void @Pdr_SetPrintOne(ptr noundef readonly captures(none) %0) local_unnamed_addr #0 {
  tail call void (i32, ptr, ...) @Abc_Print(i32 poison, ptr noundef nonnull @.str.20)
  %2 = getelementptr inbounds nuw i8, ptr %0, i64 16
  %3 = load i32, ptr %2, align 8
  %4 = icmp sgt i32 %3, 0
  br i1 %4, label %.lr.ph, label %._crit_edge

.lr.ph:                                           ; preds = %1
  %5 = getelementptr inbounds nuw i8, ptr %0, i64 20
  br label %6

6:                                                ; preds = %.lr.ph, %6
  %indvars.iv = phi i64 [ 0, %.lr.ph ], [ %indvars.iv.next, %6 ]
  %7 = getelementptr inbounds nuw [0 x i32], ptr %5, i64 0, i64 %indvars.iv
  %8 = load i32, ptr %7, align 4
  %9 = and i32 %8, 1
  %.not = icmp eq i32 %9, 0
  %10 = select i1 %.not, ptr @.str.23, ptr @.str.22
  %11 = ashr i32 %8, 1
  tail call void (i32, ptr, ...) @Abc_Print(i32 poison, ptr noundef nonnull @.str.21, ptr noundef nonnull %10, i32 noundef %11)
  %indvars.iv.next = add nuw nsw i64 %indvars.iv, 1
  %12 = load i32, ptr %2, align 8
  %13 = sext i32 %12 to i64
  %14 = icmp slt i64 %indvars.iv.next, %13
  br i1 %14, label %6, label %._crit_edge, !llvm.loop !18

._crit_edge:                                      ; preds = %6, %1
  tail call void (i32, ptr, ...) @Abc_Print(i32 poison, ptr noundef nonnull @.str.24)
  ret void
}